target datalayout = "e-m:e-p270:32:32-p271:32:32-p272:64:64-i64:64-i128:128-f80:128-n8:16:32:64-S128"
target triple = "x86_64-pc-linux-gnu"

%struct.yy_buffer_state = type { ptr, ptr, ptr, i32, i32, i32, i32, i32, i32, i32, i32, i32 }

@frontend_verilog_yyin = global ptr null, align 8
@frontend_verilog_yytext = global ptr null, align 8
@_ZL15yy_buffer_stack = internal global ptr null, align 8
@_ZL19yy_buffer_stack_top = internal global i64 0, align 8
@_ZL10yy_c_buf_p = internal global ptr null, align 8
@_ZL12yy_hold_char = internal global i8 0, align 1
@_ZL10yy_n_chars = internal global i32 0, align 4

; Function Attrs: mustprogress nounwind uwtable
define internal void @_ZL37frontend_verilog_yy_load_buffer_statev() #4 {
  %1 = load ptr, ptr @_ZL15yy_buffer_stack, align 8, !tbaa !30
  %2 = load i64, ptr @_ZL19yy_buffer_stack_top, align 8, !tbaa !33
  %3 = getelementptr inbounds nuw ptr, ptr %1, i64 %2
  %4 = load ptr, ptr %3, align 8, !tbaa !35
  %5 = getelementptr inbounds nuw %struct.yy_buffer_state, ptr %4, i32 0, i32 4
  %6 = load i32, ptr %5, align 4, !tbaa !255
  store i32 %6, ptr @_ZL10yy_n_chars, align 4, !tbaa !25
  %7 = load ptr, ptr @_ZL15yy_buffer_stack, align 8, !tbaa !30
  %8 = load i64, ptr @_ZL19yy_buffer_stack_top, align 8, !tbaa !33
  %9 = getelementptr inbounds nuw ptr, ptr %7, i64 %8
  %10 = load ptr, ptr %9, align 8, !tbaa !35
  %11 = getelementptr inbounds nuw %struct.yy_buffer_state, ptr %10, i32 0, i32 2
  %12 = load ptr, ptr %11, align 8, !tbaa !261
  store ptr %12, ptr @_ZL10yy_c_buf_p, align 8, !tbaa !37
  store ptr %12, ptr @frontend_verilog_yytext, align 8, !tbaa !37
  %13 = load ptr, ptr @_ZL15yy_buffer_stack, align 8, !tbaa !30
  %14 = load i64, ptr @_ZL19yy_buffer_stack_top, align 8, !tbaa !33
  %15 = getelementptr inbounds nuw ptr, ptr %13, i64 %14
  %16 = load ptr, ptr %15, align 8, !tbaa !35
  %17 = getelementptr inbounds nuw %struct.yy_buffer_state, ptr %16, i32 0, i32 0
  %18 = load ptr, ptr %17, align 8, !tbaa !256
  store ptr %18, ptr @frontend_verilog_yyin, align 8, !tbaa !28
  %19 = load ptr, ptr @_ZL10yy_c_buf_p, align 8, !tbaa !37
  %20 = load i8, ptr %19, align 1, !tbaa !39
  store i8 %20, ptr @_ZL12yy_hold_char, align 1, !tbaa !39
  ret void
}

; Function Attrs: mustprogress uwtable
define void @_Z32frontend_verilog_yy_flush_bufferP15yy_buffer_state(ptr noundef %0) #5 {
  %2 = alloca ptr, align 8
  store ptr %0, ptr %2, align 8, !tbaa !35
  %3 = load ptr, ptr %2, align 8, !tbaa !35
  %4 = icmp ne ptr %3, null
  br i1 %4, label %6, label %5

5:                                                ; preds = %1
  br label %40

6:                                                ; preds = %1
  %7 = load ptr, ptr %2, align 8, !tbaa !35
  %8 = getelementptr inbounds nuw %struct.yy_buffer_state, ptr %7, i32 0, i32 4
  store i32 0, ptr %8, align 4, !tbaa !255
  %9 = load ptr, ptr %2, align 8, !tbaa !35
  %10 = getelementptr inbounds nuw %struct.yy_buffer_state, ptr %9, i32 0, i32 1
  %11 = load ptr, ptr %10, align 8, !tbaa !257
  %12 = getelementptr inbounds i8, ptr %11, i64 0
  store i8 0, ptr %12, align 1, !tbaa !39
  %13 = load ptr, ptr %2, align 8, !tbaa !35
  %14 = getelementptr inbounds nuw %struct.yy_buffer_state, ptr %13, i32 0, i32 1
  %15 = load ptr, ptr %14, align 8, !tbaa !257
  %16 = getelementptr inbounds i8, ptr %15, i64 1
  store i8 0, ptr %16, align 1, !tbaa !39
  %17 = load ptr, ptr %2, align 8, !tbaa !35
  %18 = getelementptr inbounds nuw %struct.yy_buffer_state, ptr %17, i32 0, i32 1
  %19 = load ptr, ptr %18, align 8, !tbaa !257
  %20 = getelementptr inbounds i8, ptr %19, i64 0
  %21 = load ptr, ptr %2, align 8, !tbaa !35
  %22 = getelementptr inbounds nuw %struct.yy_buffer_state, ptr %21, i32 0, i32 2
  store ptr %20, ptr %22, align 8, !tbaa !261
  %23 = load ptr, ptr %2, align 8, !tbaa !35
  %24 = getelementptr inbounds nuw %struct.yy_buffer_state, ptr %23, i32 0, i32 7
  store i32 1, ptr %24, align 8, !tbaa !283
  %25 = load ptr, ptr %2, align 8, !tbaa !35
  %26 = getelementptr inbounds nuw %struct.yy_buffer_state, ptr %25, i32 0, i32 11
  store i32 0, ptr %26, align 8, !tbaa !253
  %27 = load ptr, ptr %2, align 8, !tbaa !35
  %28 = load ptr, ptr @_ZL15yy_buffer_stack, align 8, !tbaa !30
  %29 = icmp ne ptr %28, null
  br i1 %29, label %30, label %35

30:                                               ; preds = %6
  %31 = load ptr, ptr @_ZL15yy_buffer_stack, align 8, !tbaa !30
  %32 = load i64, ptr @_ZL19yy_buffer_stack_top, align 8, !tbaa !33
  %33 = getelementptr inbounds nuw ptr, ptr %31, i64 %32
  %34 = load ptr, ptr %33, align 8, !tbaa !35
  br label %36

35:                                               ; preds = %6
  br label %36

36:                                               ; preds = %35, %30
  %37 = phi ptr [ %34, %30 ], [ null, %35 ]
  %38 = icmp eq ptr %27, %37
  br i1 %38, label %39, label %40

39:                                               ; preds = %36
  call void @_ZL37frontend_verilog_yy_load_buffer_statev()
  br label %40

40:                                               ; preds = %5, %39, %36
  ret void
}