; Function Attrs: mustprogress nofree norecurse nosync nounwind willreturn memory(readwrite, inaccessiblemem: none) uwtable
define void @_Z32frontend_verilog_yy_flush_bufferP15yy_buffer_state(ptr noundef captures(address) %0) local_unnamed_addr #22 {
  %.not = icmp eq ptr %0, null
  br i1 %.not, label %.thread, label %2

2:                                                ; preds = %1
  %3 = getelementptr inbounds nuw i8, ptr %0, i64 28
  store i32 0, ptr %3, align 4, !tbaa !42
  %4 = getelementptr inbounds nuw i8, ptr %0, i64 8
  %5 = load ptr, ptr %4, align 8, !tbaa !40
  store i8 0, ptr %5, align 1, !tbaa !19
  %6 = load ptr, ptr %4, align 8, !tbaa !40
  %7 = getelementptr inbounds nuw i8, ptr %6, i64 1
  store i8 0, ptr %7, align 1, !tbaa !19
  %8 = load ptr, ptr %4, align 8, !tbaa !40
  %9 = getelementptr inbounds nuw i8, ptr %0, i64 16
  store ptr %8, ptr %9, align 8, !tbaa !43
  %10 = getelementptr inbounds nuw i8, ptr %0, i64 40
  store i32 1, ptr %10, align 8, !tbaa !286
  %11 = getelementptr inbounds nuw i8, ptr %0, i64 56
  store i32 0, ptr %11, align 8, !tbaa !260
  %12 = load ptr, ptr @_ZL15yy_buffer_stack, align 8, !tbaa !32
  %.not10 = icmp eq ptr %12, null
  br i1 %.not10, label %.thread, label %13

13:                                               ; preds = %2
  %14 = load i64, ptr @_ZL19yy_buffer_stack_top, align 8, !tbaa !35
  %15 = getelementptr inbounds nuw ptr, ptr %12, i64 %14
  %16 = load ptr, ptr %15, align 8, !tbaa !36
  %17 = icmp eq ptr %0, %16
  br i1 %17, label %18, label %.thread

18:                                               ; preds = %13
  %19 = getelementptr inbounds nuw i8, ptr %16, i64 28
  %20 = load i32, ptr %19, align 4, !tbaa !42
  store i32 %20, ptr @_ZL10yy_n_chars, align 4, !tbaa !28
  %21 = getelementptr inbounds nuw i8, ptr %16, i64 16
  %22 = load ptr, ptr %21, align 8, !tbaa !43
  store ptr %22, ptr @_ZL10yy_c_buf_p, align 8, !tbaa !44
  store ptr %22, ptr @frontend_verilog_yytext, align 8, !tbaa !44
  %23 = load ptr, ptr %16, align 8, !tbaa !45
  store ptr %23, ptr @frontend_verilog_yyin, align 8, !tbaa !30
  %24 = load i8, ptr %22, align 1, !tbaa !19
  store i8 %24, ptr @_ZL12yy_hold_char, align 1, !tbaa !19
  br label %.thread

.thread:                                          ; preds = %2, %1, %18, %13
  ret void
}